target datalayout = "e-m:e-p270:32:32-p271:32:32-p272:64:64-i64:64-i128:128-f80:128-n8:16:32:64-S128"
target triple = "x86_64-pc-linux-gnu"

; Function Attrs: inlinehint mustprogress nounwind uwtable
define linkonce_odr noundef float @_ZSt3sinf(float noundef %0) #2 comdat {
  %2 = alloca float, align 4
  store float %0, ptr %2, align 4, !tbaa !11
  %3 = load float, ptr %2, align 4, !tbaa !11
  %4 = call float @sinf(float noundef %3) #5, !tbaa !4
  ret float %4
}

; Function Attrs: inlinehint mustprogress nounwind uwtable
define linkonce_odr noundef float @_ZSt3cosf(float noundef %0) #2 comdat {
  %2 = alloca float, align 4
  store float %0, ptr %2, align 4, !tbaa !11
  %3 = load float, ptr %2, align 4, !tbaa !11
  %4 = call float @cosf(float noundef %3) #5, !tbaa !4
  ret float %4
}

; Function Attrs: inlinehint mustprogress nounwind uwtable
define internal void @_ZL9copy_rvecPKfPf(ptr noundef %0, ptr noundef %1) #2 {
  %3 = alloca ptr, align 8
  %4 = alloca ptr, align 8
  store ptr %0, ptr %3, align 8, !tbaa !8
  store ptr %1, ptr %4, align 8, !tbaa !8
  %5 = load ptr, ptr %3, align 8, !tbaa !8
  %6 = getelementptr inbounds float, ptr %5, i64 0
  %7 = load float, ptr %6, align 4, !tbaa !11
  %8 = load ptr, ptr %4, align 8, !tbaa !8
  %9 = getelementptr inbounds float, ptr %8, i64 0
  store float %7, ptr %9, align 4, !tbaa !11
  %10 = load ptr, ptr %3, align 8, !tbaa !8
  %11 = getelementptr inbounds float, ptr %10, i64 1
  %12 = load float, ptr %11, align 4, !tbaa !11
  %13 = load ptr, ptr %4, align 8, !tbaa !8
  %14 = getelementptr inbounds float, ptr %13, i64 1
  store float %12, ptr %14, align 4, !tbaa !11
  %15 = load ptr, ptr %3, align 8, !tbaa !8
  %16 = getelementptr inbounds float, ptr %15, i64 2
  %17 = load float, ptr %16, align 4, !tbaa !11
  %18 = load ptr, ptr %4, align 8, !tbaa !8
  %19 = getelementptr inbounds float, ptr %18, i64 2
  store float %17, ptr %19, align 4, !tbaa !11
  ret void
}

; Function Attrs: mustprogress uwtable
define internal void @_ZL15low_rotate_confiPA3_ffff(i32 noundef %0, ptr noundef %1, float noundef %2, float noundef %3, float noundef %4) #0 {
  %6 = alloca i32, align 4
  %7 = alloca ptr, align 8
  %8 = alloca float, align 4
  %9 = alloca float, align 4
  %10 = alloca float, align 4
  %11 = alloca i32, align 4
  %12 = alloca [3 x float], align 4
  store i32 %0, ptr %6, align 4, !tbaa !4
  store ptr %1, ptr %7, align 8, !tbaa !8
  store float %2, ptr %8, align 4, !tbaa !11
  store float %3, ptr %9, align 4, !tbaa !11
  store float %4, ptr %10, align 4, !tbaa !11
  call void @llvm.lifetime.start.p0(i64 4, ptr %11) #5
  call void @llvm.lifetime.start.p0(i64 12, ptr %12) #5
  store i32 0, ptr %11, align 4, !tbaa !4
  br label %13

13:                                               ; preds = %150, %5
  %14 = load i32, ptr %11, align 4, !tbaa !4
  %15 = load i32, ptr %6, align 4, !tbaa !4
  %16 = icmp slt i32 %14, %15
  br i1 %16, label %17, label %153

17:                                               ; preds = %13
  %18 = load ptr, ptr %7, align 8, !tbaa !8
  %19 = load i32, ptr %11, align 4, !tbaa !4
  %20 = sext i32 %19 to i64
  %21 = getelementptr inbounds [3 x float], ptr %18, i64 %20
  %22 = getelementptr inbounds [3 x float], ptr %21, i64 0, i64 0
  %23 = getelementptr inbounds [3 x float], ptr %12, i64 0, i64 0
  call void @_ZL9copy_rvecPKfPf(ptr noundef %22, ptr noundef %23)
  %24 = getelementptr inbounds [3 x float], ptr %12, i64 0, i64 0
  %25 = load float, ptr %24, align 4, !tbaa !11
  %26 = load ptr, ptr %7, align 8, !tbaa !8
  %27 = load i32, ptr %11, align 4, !tbaa !4
  %28 = sext i32 %27 to i64
  %29 = getelementptr inbounds [3 x float], ptr %26, i64 %28
  %30 = getelementptr inbounds [3 x float], ptr %29, i64 0, i64 0
  store float %25, ptr %30, align 4, !tbaa !11
  %31 = load float, ptr %8, align 4, !tbaa !11
  %32 = call noundef float @_ZSt3cosf(float noundef %31)
  %33 = getelementptr inbounds [3 x float], ptr %12, i64 0, i64 1
  %34 = load float, ptr %33, align 4, !tbaa !11
  %35 = load float, ptr %8, align 4, !tbaa !11
  %36 = call noundef float @_ZSt3sinf(float noundef %35)
  %37 = getelementptr inbounds [3 x float], ptr %12, i64 0, i64 2
  %38 = load float, ptr %37, align 4, !tbaa !11
  %39 = fmul float %36, %38
  %40 = fneg float %39
  %41 = call float @llvm.fmuladd.f32(float %32, float %34, float %40)
  %42 = load ptr, ptr %7, align 8, !tbaa !8
  %43 = load i32, ptr %11, align 4, !tbaa !4
  %44 = sext i32 %43 to i64
  %45 = getelementptr inbounds [3 x float], ptr %42, i64 %44
  %46 = getelementptr inbounds [3 x float], ptr %45, i64 0, i64 1
  store float %41, ptr %46, align 4, !tbaa !11
  %47 = load float, ptr %8, align 4, !tbaa !11
  %48 = call noundef float @_ZSt3sinf(float noundef %47)
  %49 = getelementptr inbounds [3 x float], ptr %12, i64 0, i64 1
  %50 = load float, ptr %49, align 4, !tbaa !11
  %51 = load float, ptr %8, align 4, !tbaa !11
  %52 = call noundef float @_ZSt3cosf(float noundef %51)
  %53 = getelementptr inbounds [3 x float], ptr %12, i64 0, i64 2
  %54 = load float, ptr %53, align 4, !tbaa !11
  %55 = fmul float %52, %54
  %56 = call float @llvm.fmuladd.f32(float %48, float %50, float %55)
  %57 = load ptr, ptr %7, align 8, !tbaa !8
  %58 = load i32, ptr %11, align 4, !tbaa !4
  %59 = sext i32 %58 to i64
  %60 = getelementptr inbounds [3 x float], ptr %57, i64 %59
  %61 = getelementptr inbounds [3 x float], ptr %60, i64 0, i64 2
  store float %56, ptr %61, align 4, !tbaa !11
  %62 = load ptr, ptr %7, align 8, !tbaa !8
  %63 = load i32, ptr %11, align 4, !tbaa !4
  %64 = sext i32 %63 to i64
  %65 = getelementptr inbounds [3 x float], ptr %62, i64 %64
  %66 = getelementptr inbounds [3 x float], ptr %65, i64 0, i64 0
  %67 = getelementptr inbounds [3 x float], ptr %12, i64 0, i64 0
  call void @_ZL9copy_rvecPKfPf(ptr noundef %66, ptr noundef %67)
  %68 = load float, ptr %9, align 4, !tbaa !11
  %69 = call noundef float @_ZSt3cosf(float noundef %68)
  %70 = getelementptr inbounds [3 x float], ptr %12, i64 0, i64 0
  %71 = load float, ptr %70, align 4, !tbaa !11
  %72 = load float, ptr %9, align 4, !tbaa !11
  %73 = call noundef float @_ZSt3sinf(float noundef %72)
  %74 = getelementptr inbounds [3 x float], ptr %12, i64 0, i64 2
  %75 = load float, ptr %74, align 4, !tbaa !11
  %76 = fmul float %73, %75
  %77 = call float @llvm.fmuladd.f32(float %69, float %71, float %76)
  %78 = load ptr, ptr %7, align 8, !tbaa !8
  %79 = load i32, ptr %11, align 4, !tbaa !4
  %80 = sext i32 %79 to i64
  %81 = getelementptr inbounds [3 x float], ptr %78, i64 %80
  %82 = getelementptr inbounds [3 x float], ptr %81, i64 0, i64 0
  store float %77, ptr %82, align 4, !tbaa !11
  %83 = getelementptr inbounds [3 x float], ptr %12, i64 0, i64 1
  %84 = load float, ptr %83, align 4, !tbaa !11
  %85 = load ptr, ptr %7, align 8, !tbaa !8
  %86 = load i32, ptr %11, align 4, !tbaa !4
  %87 = sext i32 %86 to i64
  %88 = getelementptr inbounds [3 x float], ptr %85, i64 %87
  %89 = getelementptr inbounds [3 x float], ptr %88, i64 0, i64 1
  store float %84, ptr %89, align 4, !tbaa !11
  %90 = load float, ptr %9, align 4, !tbaa !11
  %91 = call noundef float @_ZSt3sinf(float noundef %90)
  %92 = fneg float %91
  %93 = getelementptr inbounds [3 x float], ptr %12, i64 0, i64 0
  %94 = load float, ptr %93, align 4, !tbaa !11
  %95 = load float, ptr %9, align 4, !tbaa !11
  %96 = call noundef float @_ZSt3cosf(float noundef %95)
  %97 = getelementptr inbounds [3 x float], ptr %12, i64 0, i64 2
  %98 = load float, ptr %97, align 4, !tbaa !11
  %99 = fmul float %96, %98
  %100 = call float @llvm.fmuladd.f32(float %92, float %94, float %99)
  %101 = load ptr, ptr %7, align 8, !tbaa !8
  %102 = load i32, ptr %11, align 4, !tbaa !4
  %103 = sext i32 %102 to i64
  %104 = getelementptr inbounds [3 x float], ptr %101, i64 %103
  %105 = getelementptr inbounds [3 x float], ptr %104, i64 0, i64 2
  store float %100, ptr %105, align 4, !tbaa !11
  %106 = load ptr, ptr %7, align 8, !tbaa !8
  %107 = load i32, ptr %11, align 4, !tbaa !4
  %108 = sext i32 %107 to i64
  %109 = getelementptr inbounds [3 x float], ptr %106, i64 %108
  %110 = getelementptr inbounds [3 x float], ptr %109, i64 0, i64 0
  %111 = getelementptr inbounds [3 x float], ptr %12, i64 0, i64 0
  call void @_ZL9copy_rvecPKfPf(ptr noundef %110, ptr noundef %111)
  %112 = getelementptr inbounds [3 x float], ptr %12, i64 0, i64 0
  %113 = load float, ptr %112, align 4, !tbaa !11
  %114 = load float, ptr %10, align 4, !tbaa !11
  %115 = call noundef float @_ZSt3cosf(float noundef %114)
  %116 = getelementptr inbounds [3 x float], ptr %12, i64 0, i64 1
  %117 = load float, ptr %116, align 4, !tbaa !11
  %118 = load float, ptr %10, align 4, !tbaa !11
  %119 = call noundef float @_ZSt3sinf(float noundef %118)
  %120 = fmul float %117, %119
  %121 = fneg float %120
  %122 = call float @llvm.fmuladd.f32(float %113, float %115, float %121)
  %123 = load ptr, ptr %7, align 8, !tbaa !8
  %124 = load i32, ptr %11, align 4, !tbaa !4
  %125 = sext i32 %124 to i64
  %126 = getelementptr inbounds [3 x float], ptr %123, i64 %125
  %127 = getelementptr inbounds [3 x float], ptr %126, i64 0, i64 0
  store float %122, ptr %127, align 4, !tbaa !11
  %128 = getelementptr inbounds [3 x float], ptr %12, i64 0, i64 0
  %129 = load float, ptr %128, align 4, !tbaa !11
  %130 = load float, ptr %10, align 4, !tbaa !11
  %131 = call noundef float @_ZSt3sinf(float noundef %130)
  %132 = getelementptr inbounds [3 x float], ptr %12, i64 0, i64 1
  %133 = load float, ptr %132, align 4, !tbaa !11
  %134 = load float, ptr %10, align 4, !tbaa !11
  %135 = call noundef float @_ZSt3cosf(float noundef %134)
  %136 = fmul float %133, %135
  %137 = call float @llvm.fmuladd.f32(float %129, float %131, float %136)
  %138 = load ptr, ptr %7, align 8, !tbaa !8
  %139 = load i32, ptr %11, align 4, !tbaa !4
  %140 = sext i32 %139 to i64
  %141 = getelementptr inbounds [3 x float], ptr %138, i64 %140
  %142 = getelementptr inbounds [3 x float], ptr %141, i64 0, i64 1
  store float %137, ptr %142, align 4, !tbaa !11
  %143 = getelementptr inbounds [3 x float], ptr %12, i64 0, i64 2
  %144 = load float, ptr %143, align 4, !tbaa !11
  %145 = load ptr, ptr %7, align 8, !tbaa !8
  %146 = load i32, ptr %11, align 4, !tbaa !4
  %147 = sext i32 %146 to i64
  %148 = getelementptr inbounds [3 x float], ptr %145, i64 %147
  %149 = getelementptr inbounds [3 x float], ptr %148, i64 0, i64 2
  store float %144, ptr %149, align 4, !tbaa !11
  br label %150

150:                                              ; preds = %17
  %151 = load i32, ptr %11, align 4, !tbaa !4
  %152 = add nsw i32 %151, 1
  store i32 %152, ptr %11, align 4, !tbaa !4
  br label %13, !llvm.loop !13

153:                                              ; preds = %13
  call void @llvm.lifetime.end.p0(i64 12, ptr %12) #5
  call void @llvm.lifetime.end.p0(i64 4, ptr %11) #5
  ret void
}

; Function Attrs: mustprogress uwtable
define void @_Z11rotate_confiPA3_fS0_fff(i32 noundef %0, ptr noundef %1, ptr noundef %2, float noundef %3, float noundef %4, float noundef %5) #0 {
  %7 = alloca i32, align 4
  %8 = alloca ptr, align 8
  %9 = alloca ptr, align 8
  %10 = alloca float, align 4
  %11 = alloca float, align 4
  %12 = alloca float, align 4
  store i32 %0, ptr %7, align 4, !tbaa !4
  store ptr %1, ptr %8, align 8, !tbaa !8
  store ptr %2, ptr %9, align 8, !tbaa !8
  store float %3, ptr %10, align 4, !tbaa !11
  store float %4, ptr %11, align 4, !tbaa !11
  store float %5, ptr %12, align 4, !tbaa !11
  %13 = load ptr, ptr %8, align 8, !tbaa !8
  %14 = icmp ne ptr %13, null
  br i1 %14, label %15, label %21

15:                                               ; preds = %6
  %16 = load i32, ptr %7, align 4, !tbaa !4
  %17 = load ptr, ptr %8, align 8, !tbaa !8
  %18 = load float, ptr %10, align 4, !tbaa !11
  %19 = load float, ptr %11, align 4, !tbaa !11
  %20 = load float, ptr %12, align 4, !tbaa !11
  call void @_ZL15low_rotate_confiPA3_ffff(i32 noundef %16, ptr noundef %17, float noundef %18, float noundef %19, float noundef %20)
  br label %21

21:                                               ; preds = %15, %6
  %22 = load ptr, ptr %9, align 8, !tbaa !8
  %23 = icmp ne ptr %22, null
  br i1 %23, label %24, label %30

24:                                               ; preds = %21
  %25 = load i32, ptr %7, align 4, !tbaa !4
  %26 = load ptr, ptr %9, align 8, !tbaa !8
  %27 = load float, ptr %10, align 4, !tbaa !11
  %28 = load float, ptr %11, align 4, !tbaa !11
  %29 = load float, ptr %12, align 4, !tbaa !11
  call void @_ZL15low_rotate_confiPA3_ffff(i32 noundef %25, ptr noundef %26, float noundef %27, float noundef %28, float noundef %29)
  br label %30

30:                                               ; preds = %24, %21
  ret void
}